target datalayout = "e-m:e-p270:32:32-p271:32:32-p272:64:64-i64:64-i128:128-f80:128-n8:16:32:64-S128"
target triple = "x86_64-pc-linux-gnu"

; Function Attrs: nounwind uwtable
define i32 @Lpk_SuppToVars(i32 noundef %0, ptr noundef %1) #0 {
  %3 = alloca i32, align 4
  %4 = alloca ptr, align 8
  %5 = alloca i32, align 4
  %6 = alloca i32, align 4
  store i32 %0, ptr %3, align 4, !tbaa !3
  store ptr %1, ptr %4, align 8, !tbaa !34
  call void @llvm.lifetime.start.p0(i64 4, ptr %5) #9
  call void @llvm.lifetime.start.p0(i64 4, ptr %6) #9
  store i32 0, ptr %6, align 4, !tbaa !3
  store i32 0, ptr %5, align 4, !tbaa !3
  br label %7

7:                                                ; preds = %26, %2
  %8 = load i32, ptr %5, align 4, !tbaa !3
  %9 = icmp slt i32 %8, 16
  br i1 %9, label %10, label %29

10:                                               ; preds = %7
  %11 = load i32, ptr %3, align 4, !tbaa !3
  %12 = load i32, ptr %5, align 4, !tbaa !3
  %13 = shl i32 1, %12
  %14 = and i32 %11, %13
  %15 = icmp ne i32 %14, 0
  br i1 %15, label %17, label %16

16:                                               ; preds = %10
  br label %25

17:                                               ; preds = %10
  %18 = load i32, ptr %5, align 4, !tbaa !3
  %19 = trunc i32 %18 to i8
  %20 = load ptr, ptr %4, align 8, !tbaa !34
  %21 = load i32, ptr %6, align 4, !tbaa !3
  %22 = add nsw i32 %21, 1
  store i32 %22, ptr %6, align 4, !tbaa !3
  %23 = sext i32 %21 to i64
  %24 = getelementptr inbounds i8, ptr %20, i64 %23
  store i8 %19, ptr %24, align 1, !tbaa !22
  br label %25

25:                                               ; preds = %17, %16
  br label %26

26:                                               ; preds = %25
  %27 = load i32, ptr %5, align 4, !tbaa !3
  %28 = add nsw i32 %27, 1
  store i32 %28, ptr %5, align 4, !tbaa !3
  br label %7, !llvm.loop !36

29:                                               ; preds = %7
  %30 = load i32, ptr %6, align 4, !tbaa !3
  call void @llvm.lifetime.end.p0(i64 4, ptr %6) #9
  call void @llvm.lifetime.end.p0(i64 4, ptr %5) #9
  ret i32 %30
}