; Function Attrs: nofree norecurse nosync nounwind memory(argmem: write) uwtable
define i32 @Lpk_SuppToVars(i32 noundef %0, ptr noundef writeonly captures(none) %1) local_unnamed_addr #9 {
  br label %3

3:                                                ; preds = %2, %11
  %.09 = phi i32 [ 0, %2 ], [ %.1, %11 ]
  %.078 = phi i32 [ 0, %2 ], [ %12, %11 ]
  %4 = shl nuw nsw i32 1, %.078
  %5 = and i32 %4, %0
  %.not = icmp eq i32 %5, 0
  br i1 %.not, label %11, label %6

6:                                                ; preds = %3
  %7 = trunc nuw i32 %.078 to i8
  %8 = add nsw i32 %.09, 1
  %9 = sext i32 %.09 to i64
  %10 = getelementptr inbounds i8, ptr %1, i64 %9
  store i8 %7, ptr %10, align 1, !tbaa !17
  br label %11

11:                                               ; preds = %6, %3
  %.1 = phi i32 [ %8, %6 ], [ %.09, %3 ]
  %12 = add nuw nsw i32 %.078, 1
  %exitcond.not = icmp eq i32 %12, 16
  br i1 %exitcond.not, label %13, label %3, !llvm.loop !24

13:                                               ; preds = %11
  ret i32 %.1
}